target datalayout = "e-m:e-p270:32:32-p271:32:32-p272:64:64-i64:64-i128:128-f80:128-n8:16:32:64-S128"
target triple = "x86_64-pc-linux-gnu"

%struct._cms_typehandler_struct = type { i32, ptr, ptr, ptr, ptr, ptr, i32 }
%struct._cms_io_handler = type { ptr, ptr, i32, i32, [256 x i8], ptr, ptr, ptr, ptr, ptr }
%struct.cmsDateTimeNumber = type { i16, i16, i16, i16, i16, i16 }

; Function Attrs: nounwind uwtable
define internal ptr @Type_DateTime_Read(ptr noundef %0, ptr noundef %1, ptr noundef %2, i32 noundef %3) #0 {
  %5 = alloca ptr, align 8
  %6 = alloca ptr, align 8
  %7 = alloca ptr, align 8
  %8 = alloca ptr, align 8
  %9 = alloca i32, align 4
  %10 = alloca %struct.cmsDateTimeNumber, align 2
  %11 = alloca ptr, align 8
  store ptr %0, ptr %6, align 8
  store ptr %1, ptr %7, align 8
  store ptr %2, ptr %8, align 8
  store i32 %3, ptr %9, align 4
  %12 = load ptr, ptr %8, align 8
  store i32 0, ptr %12, align 4
  %13 = load ptr, ptr %6, align 8
  %14 = getelementptr inbounds %struct._cms_typehandler_struct, ptr %13, i32 0, i32 5
  %15 = load ptr, ptr %14, align 8
  %16 = call ptr @_cmsMalloc(ptr noundef %15, i32 noundef 56)
  store ptr %16, ptr %11, align 8
  %17 = load ptr, ptr %11, align 8
  %18 = icmp eq ptr %17, null
  br i1 %18, label %19, label %20

19:                                               ; preds = %4
  store ptr null, ptr %5, align 8
  br label %32

20:                                               ; preds = %4
  %21 = load ptr, ptr %7, align 8
  %22 = getelementptr inbounds %struct._cms_io_handler, ptr %21, i32 0, i32 5
  %23 = load ptr, ptr %22, align 8
  %24 = load ptr, ptr %7, align 8
  %25 = call i32 %23(ptr noundef %24, ptr noundef %10, i32 noundef 12, i32 noundef 1)
  %26 = icmp ne i32 %25, 1
  br i1 %26, label %27, label %28

27:                                               ; preds = %20
  store ptr null, ptr %5, align 8
  br label %32

28:                                               ; preds = %20
  %29 = load ptr, ptr %11, align 8
  call void @_cmsDecodeDateTimeNumber(ptr noundef %10, ptr noundef %29)
  %30 = load ptr, ptr %8, align 8
  store i32 1, ptr %30, align 4
  %31 = load ptr, ptr %11, align 8
  store ptr %31, ptr %5, align 8
  br label %32

32:                                               ; preds = %28, %27, %19
  %33 = load ptr, ptr %5, align 8
  ret ptr %33
}