; Function Attrs: nounwind uwtable
define internal ptr @Type_DateTime_Read(ptr nocapture noundef readonly %0, ptr noundef %1, ptr nocapture noundef writeonly %2, i32 %3) #0 {
  %5 = alloca %struct.cmsDateTimeNumber, align 2
  store i32 0, ptr %2, align 4
  %6 = getelementptr inbounds i8, ptr %0, i64 40
  %7 = load ptr, ptr %6, align 8
  %8 = tail call ptr @_cmsMalloc(ptr noundef %7, i32 noundef 56) #13
  %9 = icmp eq ptr %8, null
  br i1 %9, label %15, label %10

10:                                               ; preds = %4
  %11 = getelementptr inbounds i8, ptr %1, i64 280
  %12 = load ptr, ptr %11, align 8
  %13 = call i32 %12(ptr noundef %1, ptr noundef nonnull %5, i32 noundef 12, i32 noundef 1) #13
  %.not = icmp eq i32 %13, 1
  br i1 %.not, label %14, label %15

14:                                               ; preds = %10
  call void @_cmsDecodeDateTimeNumber(ptr noundef nonnull %5, ptr noundef nonnull %8) #13
  store i32 1, ptr %2, align 4
  br label %15

15:                                               ; preds = %10, %4, %14
  %.0 = phi ptr [ %8, %14 ], [ null, %4 ], [ null, %10 ]
  ret ptr %.0
}